	.file	"func.c"
	.text
	.globl	add
	.def	add;	.scl	2;	.type	32;	.endef
	.seh_proc	add
add:
	pushq	%rbp
	.seh_pushreg	%rbp
	movq	%rsp, %rbp
	.seh_setframe	%rbp, 0
	subq	$16, %rsp
	.seh_stackalloc	16
	.seh_endprologue
	movl	%ecx, 16(%rbp)
	movl	%edx, 24(%rbp)
	movl	16(%rbp), %edx
	movl	24(%rbp), %eax
	addl	%edx, %eax
	movl	%eax, -4(%rbp)
	movl	-4(%rbp), %eax
	addq	$16, %rsp
	popq	%rbp
	ret
	.seh_endproc
	.globl	multiply
	.def	multiply;	.scl	2;	.type	32;	.endef
	.seh_proc	multiply
multiply:
	pushq	%rbp
	.seh_pushreg	%rbp
	movq	%rsp, %rbp
	.seh_setframe	%rbp, 0
	subq	$16, %rsp
	.seh_stackalloc	16
	.seh_endprologue
	movl	%ecx, 16(%rbp)
	movl	%edx, 24(%rbp)
	movl	16(%rbp), %eax
	imull	24(%rbp), %eax
	movl	%eax, -4(%rbp)
	movl	-4(%rbp), %eax
	addq	$16, %rsp
	popq	%rbp
	ret
	.seh_endproc
	.globl	compute
	.def	compute;	.scl	2;	.type	32;	.endef
	.seh_proc	compute
compute:
	pushq	%rbp
	.seh_pushreg	%rbp
	movq	%rsp, %rbp
	.seh_setframe	%rbp, 0
	subq	$48, %rsp
	.seh_stackalloc	48
	.seh_endprologue
	movl	%ecx, 16(%rbp)
	movl	%edx, 24(%rbp)
	movl	24(%rbp), %edx
	movl	16(%rbp), %eax
	movl	%eax, %ecx
	call	add
	movl	%eax, -4(%rbp)
	movl	24(%rbp), %edx
	movl	16(%rbp), %eax
	movl	%eax, %ecx
	call	multiply
	movl	%eax, -8(%rbp)
	movl	-4(%rbp), %edx
	movl	-8(%rbp), %eax
	addl	%edx, %eax
	addq	$48, %rsp
	popq	%rbp
	ret
	.seh_endproc
	.section .rdata,"dr"
.LC0:
	.ascii "%d\12\0"
	.text
	.globl	main
	.def	main;	.scl	2;	.type	32;	.endef
	.seh_proc	main
main:
	pushq	%rbp
	.seh_pushreg	%rbp
	movq	%rsp, %rbp
	.seh_setframe	%rbp, 0
	subq	$48, %rsp
	.seh_stackalloc	48
	.seh_endprologue
	call	__main
	movl	$4, %edx
	movl	$3, %ecx
	call	add
	movl	%eax, -4(%rbp)
	movl	-4(%rbp), %eax
	movl	%eax, %edx
	leaq	.LC0(%rip), %rax
	movq	%rax, %rcx
	call	printf
	movl	$4, %edx
	movl	$3, %ecx
	call	multiply
	movl	%eax, -8(%rbp)
	movl	-8(%rbp), %eax
	movl	%eax, %edx
	leaq	.LC0(%rip), %rax
	movq	%rax, %rcx
	call	printf
	movl	$4, %edx
	movl	$3, %ecx
	call	compute
	movl	%eax, -12(%rbp)
	movl	-12(%rbp), %eax
	movl	%eax, %edx
	leaq	.LC0(%rip), %rax
	movq	%rax, %rcx
	call	printf
	movl	$0, %eax
	addq	$48, %rsp
	popq	%rbp
	ret
	.seh_endproc
	.def	__main;	.scl	2;	.type	32;	.endef
	.ident	"GCC: (Rev2, Built by MSYS2 project) 14.2.0"
	.def	printf;	.scl	2;	.type	32;	.endef
